; Function Attrs: nounwind uwtable
define hidden void @nghttp2_frame_unpack_priority_payload(ptr noundef %0, ptr noundef %1) local_unnamed_addr #0 {
  %3 = getelementptr inbounds nuw i8, ptr %0, i64 16
  %4 = tail call i32 @nghttp2_get_uint32(ptr noundef %1) #18
  %5 = and i32 %4, 2147483647
  %6 = load i8, ptr %1, align 1, !tbaa !10
  %.lobit.i = lshr i8 %6, 7
  %7 = getelementptr inbounds nuw i8, ptr %1, i64 4
  %8 = load i8, ptr %7, align 1, !tbaa !10
  %9 = zext i8 %8 to i32
  %10 = add nuw nsw i32 %9, 1
  %11 = zext nneg i8 %.lobit.i to i32
  tail call void @nghttp2_priority_spec_init(ptr noundef nonnull %3, i32 noundef %5, i32 noundef %10, i32 noundef %11) #18
  ret void
}